; Function Attrs: mustprogress uwtable
define hidden void @_ZN19OpenColorIO_v2_4dev19getFileBufferByPathEPvR13mz_zip_file_sNSt7__cxx1112basic_stringIcSt11char_traitsIcESaIcEEE(ptr noalias sret(%"class.std::vector.17") align 8 %agg.result, ptr noundef %reader, ptr nocapture noundef nonnull readonly align 8 dereferenceable(128) %info, ptr noundef nonnull %filepath) #0 personality ptr @__gxx_personality_v0 {
entry:
  tail call void @llvm.memset.p0.i64(ptr noundef nonnull align 8 dereferenceable(24) %agg.result, i8 0, i64 24, i1 false)
  %call = tail call noundef ptr @_ZNKSt7__cxx1112basic_stringIcSt11char_traitsIcESaIcEE5c_strEv(ptr noundef nonnull align 8 dereferenceable(32) %filepath) #15
  %filename = getelementptr inbounds i8, ptr %info, i64 88
  %0 = load ptr, ptr %filename, align 8
  %call1 = invoke i32 @mz_path_compare_wc(ptr noundef %call, ptr noundef %0, i8 noundef zeroext 1)
          to label %invoke.cont unwind label %lpad

invoke.cont:                                      ; preds = %entry
  %cmp = icmp eq i32 %call1, 0
  br i1 %cmp, label %if.then, label %nrvo.skipdtor

if.then:                                          ; preds = %invoke.cont
  %call3 = invoke i32 @mz_zip_reader_entry_save_buffer_length(ptr noundef %reader)
          to label %invoke.cont2 unwind label %lpad

invoke.cont2:                                     ; preds = %if.then
  %conv = sext i32 %call3 to i64
  invoke void @_ZNSt6vectorIhSaIhEE6resizeEm(ptr noundef nonnull align 8 dereferenceable(24) %agg.result, i64 noundef %conv)
          to label %invoke.cont4 unwind label %lpad

invoke.cont4:                                     ; preds = %invoke.cont2
  %1 = load ptr, ptr %agg.result, align 8
  %call7 = invoke i32 @mz_zip_reader_entry_save_buffer(ptr noundef %reader, ptr noundef nonnull %1, i32 noundef %call3)
          to label %nrvo.skipdtor unwind label %lpad

lpad:                                             ; preds = %invoke.cont4, %invoke.cont2, %if.then, %entry
  %2 = landingpad { ptr, i32 }
          cleanup
  %3 = load ptr, ptr %agg.result, align 8
  %tobool.not.i.i.i = icmp eq ptr %3, null
  br i1 %tobool.not.i.i.i, label %_ZNSt6vectorIhSaIhEED2Ev.exit, label %if.then.i.i.i

if.then.i.i.i:                                    ; preds = %lpad
  tail call void @_ZdlPv(ptr noundef nonnull %3) #17
  br label %_ZNSt6vectorIhSaIhEED2Ev.exit

_ZNSt6vectorIhSaIhEED2Ev.exit:                    ; preds = %lpad, %if.then.i.i.i
  resume { ptr, i32 } %2

nrvo.skipdtor:                                    ; preds = %invoke.cont, %invoke.cont4
  ret void
}